target datalayout = "e-m:e-p270:32:32-p271:32:32-p272:64:64-i64:64-i128:128-f80:128-n8:16:32:64-S128"
target triple = "x86_64-pc-linux-gnu"

%"class.pxrInternal_v0_24__pxrReserved__::TfToken" = type { %"class.pxrInternal_v0_24__pxrReserved__::TfPointerAndBits" }
%"class.pxrInternal_v0_24__pxrReserved__::TfPointerAndBits" = type { ptr }
%"class.pxrInternal_v0_24__pxrReserved__::TfWeakPtr" = type { ptr, %"class.pxrInternal_v0_24__pxrReserved__::TfRefPtr" }
%"class.pxrInternal_v0_24__pxrReserved__::TfRefPtr" = type { ptr }
%"class.std::__cxx11::basic_string" = type { %"struct.std::__cxx11::basic_string<char>::_Alloc_hider", i64, %union.anon }
%"struct.std::__cxx11::basic_string<char>::_Alloc_hider" = type { ptr }
%union.anon = type { i64, [8 x i8] }
%"class.std::allocator.2" = type { i8 }
%"class.pxrInternal_v0_24__pxrReserved__::TfCallContext" = type <{ ptr, ptr, i64, ptr, i8, [7 x i8] }>

@__dso_handle = external hidden global i8
@_ZZN32pxrInternal_v0_24__pxrReserved__L14_GetShaderPathEPKcE6plugin = internal global %"class.pxrInternal_v0_24__pxrReserved__::TfWeakPtr" zeroinitializer, align 8
@_ZGVZN32pxrInternal_v0_24__pxrReserved__L14_GetShaderPathEPKcE6plugin = internal global i64 0, align 8
@.str.1 = private unnamed_addr constant [15 x i8] c"usdSkelImaging\00", align 1
@.str.2 = private unnamed_addr constant [8 x i8] c"shaders\00", align 1
@.str.3 = private unnamed_addr constant [135 x i8] c"generated/home/dtcxzyw/WorkSpace/Projects/compilers/llvm-opt-benchmark/bench/openusd/OpenUSD/pxr/usdImaging/usdSkelImaging/package.cpp\00", align 1
@__func__._ZN32pxrInternal_v0_24__pxrReserved__L14_GetShaderPathEPKc = private unnamed_addr constant [15 x i8] c"_GetShaderPath\00", align 1
@__PRETTY_FUNCTION__._ZN32pxrInternal_v0_24__pxrReserved__L14_GetShaderPathEPKc = private unnamed_addr constant [71 x i8] c"TfToken pxrInternal_v0_24__pxrReserved__::_GetShaderPath(const char *)\00", align 1
@.str.4 = private unnamed_addr constant [14 x i8] c"!path.empty()\00", align 1
@.str.5 = private unnamed_addr constant [27 x i8] c"Could not find shader: %s\0A\00", align 1

; Function Attrs: mustprogress nounwind uwtable
define linkonce_odr void @_ZN32pxrInternal_v0_24__pxrReserved__13TfCallContextC2EPKcS2_mS2_(ptr noundef nonnull align 8 dereferenceable(33) %0, ptr noundef %1, ptr noundef %2, i64 noundef %3, ptr noundef %4) unnamed_addr #2 comdat align 2 {
  %6 = alloca ptr, align 8
  %7 = alloca ptr, align 8
  %8 = alloca ptr, align 8
  %9 = alloca i64, align 8
  %10 = alloca ptr, align 8
  store ptr %0, ptr %6, align 8
  store ptr %1, ptr %7, align 8
  store ptr %2, ptr %8, align 8
  store i64 %3, ptr %9, align 8
  store ptr %4, ptr %10, align 8
  %11 = load ptr, ptr %6, align 8
  %12 = getelementptr inbounds nuw %"class.pxrInternal_v0_24__pxrReserved__::TfCallContext", ptr %11, i32 0, i32 0
  %13 = load ptr, ptr %7, align 8
  store ptr %13, ptr %12, align 8
  %14 = getelementptr inbounds nuw %"class.pxrInternal_v0_24__pxrReserved__::TfCallContext", ptr %11, i32 0, i32 1
  %15 = load ptr, ptr %8, align 8
  store ptr %15, ptr %14, align 8
  %16 = getelementptr inbounds nuw %"class.pxrInternal_v0_24__pxrReserved__::TfCallContext", ptr %11, i32 0, i32 2
  %17 = load i64, ptr %9, align 8
  store i64 %17, ptr %16, align 8
  %18 = getelementptr inbounds nuw %"class.pxrInternal_v0_24__pxrReserved__::TfCallContext", ptr %11, i32 0, i32 3
  %19 = load ptr, ptr %10, align 8
  store ptr %19, ptr %18, align 8
  %20 = getelementptr inbounds nuw %"class.pxrInternal_v0_24__pxrReserved__::TfCallContext", ptr %11, i32 0, i32 4
  store i8 0, ptr %20, align 8
  ret void
}

; Function Attrs: mustprogress uwtable
define internal void @_ZN32pxrInternal_v0_24__pxrReserved__L14_GetShaderPathEPKc(ptr dead_on_unwind noalias writable sret(%"class.pxrInternal_v0_24__pxrReserved__::TfToken") align 8 %0, ptr noundef %1) #0 personality ptr @__gxx_personality_v0 {
  %3 = alloca ptr, align 8
  %4 = alloca ptr, align 8
  %5 = alloca ptr, align 8
  %6 = alloca i32, align 4
  %7 = alloca %"class.std::__cxx11::basic_string", align 8
  %8 = alloca %"class.std::allocator.2", align 1
  %9 = alloca %"class.std::__cxx11::basic_string", align 8
  %10 = alloca %"class.std::__cxx11::basic_string", align 8
  %11 = alloca %"class.std::__cxx11::basic_string", align 8
  %12 = alloca %"class.std::allocator.2", align 1
  %13 = alloca %"class.std::__cxx11::basic_string", align 8
  %14 = alloca %"class.std::allocator.2", align 1
  %15 = alloca %"class.pxrInternal_v0_24__pxrReserved__::TfCallContext", align 8
  store ptr %0, ptr %3, align 8
  store ptr %1, ptr %4, align 8
  %16 = load atomic i8, ptr @_ZGVZN32pxrInternal_v0_24__pxrReserved__L14_GetShaderPathEPKcE6plugin acquire, align 8
  %17 = icmp eq i8 %16, 0
  br i1 %17, label %18, label %27, !prof !4

18:                                               ; preds = %2
  %19 = call i32 @__cxa_guard_acquire(ptr @_ZGVZN32pxrInternal_v0_24__pxrReserved__L14_GetShaderPathEPKcE6plugin) #1
  %20 = icmp ne i32 %19, 0
  br i1 %20, label %21, label %27

21:                                               ; preds = %18
  %22 = invoke noundef nonnull align 8 dereferenceable(104) ptr @_ZN32pxrInternal_v0_24__pxrReserved__12PlugRegistry11GetInstanceEv()
          to label %23 unwind label %45

23:                                               ; preds = %21
  call void @_ZNSaIcEC1Ev(ptr noundef nonnull align 1 dereferenceable(1) %8) #1
  invoke void @_ZNSt7__cxx1112basic_stringIcSt11char_traitsIcESaIcEEC2IS3_EEPKcRKS3_(ptr noundef nonnull align 8 dereferenceable(32) %7, ptr noundef @.str.1, ptr noundef nonnull align 1 dereferenceable(1) %8)
          to label %24 unwind label %49

24:                                               ; preds = %23
  invoke void @_ZNK32pxrInternal_v0_24__pxrReserved__12PlugRegistry17GetPluginWithNameERKNSt7__cxx1112basic_stringIcSt11char_traitsIcESaIcEEE(ptr dead_on_unwind writable sret(%"class.pxrInternal_v0_24__pxrReserved__::TfWeakPtr") align 8 @_ZZN32pxrInternal_v0_24__pxrReserved__L14_GetShaderPathEPKcE6plugin, ptr noundef nonnull align 8 dereferenceable(104) %22, ptr noundef nonnull align 8 dereferenceable(32) %7)
          to label %25 unwind label %53

25:                                               ; preds = %24
  call void @_ZNSt7__cxx1112basic_stringIcSt11char_traitsIcESaIcEED1Ev(ptr noundef nonnull align 8 dereferenceable(32) %7) #1
  call void @_ZNSaIcED1Ev(ptr noundef nonnull align 1 dereferenceable(1) %8) #1
  %26 = call i32 @__cxa_atexit(ptr @_ZN32pxrInternal_v0_24__pxrReserved__9TfWeakPtrINS_10PlugPluginEED2Ev, ptr @_ZZN32pxrInternal_v0_24__pxrReserved__L14_GetShaderPathEPKcE6plugin, ptr @__dso_handle) #1
  call void @__cxa_guard_release(ptr @_ZGVZN32pxrInternal_v0_24__pxrReserved__L14_GetShaderPathEPKcE6plugin) #1
  br label %27

27:                                               ; preds = %25, %18, %2
  call void @_ZNSaIcEC1Ev(ptr noundef nonnull align 1 dereferenceable(1) %12) #1
  invoke void @_ZNSt7__cxx1112basic_stringIcSt11char_traitsIcESaIcEEC2IS3_EEPKcRKS3_(ptr noundef nonnull align 8 dereferenceable(32) %11, ptr noundef @.str.2, ptr noundef nonnull align 1 dereferenceable(1) %12)
          to label %28 unwind label %59

28:                                               ; preds = %27
  %29 = load ptr, ptr %4, align 8
  call void @_ZNSaIcEC1Ev(ptr noundef nonnull align 1 dereferenceable(1) %14) #1
  invoke void @_ZNSt7__cxx1112basic_stringIcSt11char_traitsIcESaIcEEC2IS3_EEPKcRKS3_(ptr noundef nonnull align 8 dereferenceable(32) %13, ptr noundef %29, ptr noundef nonnull align 1 dereferenceable(1) %14)
          to label %30 unwind label %63

30:                                               ; preds = %28
  invoke void @_ZN32pxrInternal_v0_24__pxrReserved__16TfStringCatPathsERKNSt7__cxx1112basic_stringIcSt11char_traitsIcESaIcEEES7_(ptr dead_on_unwind writable sret(%"class.std::__cxx11::basic_string") align 8 %10, ptr noundef nonnull align 8 dereferenceable(32) %11, ptr noundef nonnull align 8 dereferenceable(32) %13)
          to label %31 unwind label %67

31:                                               ; preds = %30
  invoke void @_ZN32pxrInternal_v0_24__pxrReserved__22PlugFindPluginResourceERKNS_9TfWeakPtrINS_10PlugPluginEEERKNSt7__cxx1112basic_stringIcSt11char_traitsIcESaIcEEEb(ptr dead_on_unwind writable sret(%"class.std::__cxx11::basic_string") align 8 %9, ptr noundef nonnull align 8 dereferenceable(16) @_ZZN32pxrInternal_v0_24__pxrReserved__L14_GetShaderPathEPKcE6plugin, ptr noundef nonnull align 8 dereferenceable(32) %10, i1 noundef zeroext true)
          to label %32 unwind label %71

32:                                               ; preds = %31
  call void @_ZNSt7__cxx1112basic_stringIcSt11char_traitsIcESaIcEED1Ev(ptr noundef nonnull align 8 dereferenceable(32) %10) #1
  call void @_ZNSt7__cxx1112basic_stringIcSt11char_traitsIcESaIcEED1Ev(ptr noundef nonnull align 8 dereferenceable(32) %13) #1
  call void @_ZNSaIcED1Ev(ptr noundef nonnull align 1 dereferenceable(1) %14) #1
  call void @_ZNSt7__cxx1112basic_stringIcSt11char_traitsIcESaIcEED1Ev(ptr noundef nonnull align 8 dereferenceable(32) %11) #1
  call void @_ZNSaIcED1Ev(ptr noundef nonnull align 1 dereferenceable(1) %12) #1
  %33 = call noundef zeroext i1 @_ZNKSt7__cxx1112basic_stringIcSt11char_traitsIcESaIcEE5emptyEv(ptr noundef nonnull align 8 dereferenceable(32) %9) #1
  %34 = xor i1 %33, true
  br i1 %34, label %35, label %36

35:                                               ; preds = %32
  br label %43

36:                                               ; preds = %32
  invoke void @_ZN32pxrInternal_v0_24__pxrReserved__13TfCallContextC2EPKcS2_mS2_(ptr noundef nonnull align 8 dereferenceable(33) %15, ptr noundef @.str.3, ptr noundef @__func__._ZN32pxrInternal_v0_24__pxrReserved__L14_GetShaderPathEPKc, i64 noundef 23, ptr noundef @__PRETTY_FUNCTION__._ZN32pxrInternal_v0_24__pxrReserved__L14_GetShaderPathEPKc)
          to label %37 unwind label %78

37:                                               ; preds = %36
  %38 = load ptr, ptr %4, align 8
  %39 = invoke noundef ptr (ptr, ...) @_ZN32pxrInternal_v0_24__pxrReserved__21Tf_VerifyStringFormatEPKcz(ptr noundef @.str.5, ptr noundef %38)
          to label %40 unwind label %78

40:                                               ; preds = %37
  %41 = invoke noundef zeroext i1 @_ZN32pxrInternal_v0_24__pxrReserved__21Tf_FailedVerifyHelperERKNS_13TfCallContextEPKcS4_(ptr noundef nonnull align 8 dereferenceable(33) %15, ptr noundef @.str.4, ptr noundef %39)
          to label %42 unwind label %78

42:                                               ; preds = %40
  br label %43

43:                                               ; preds = %42, %35
  invoke void @_ZN32pxrInternal_v0_24__pxrReserved__7TfTokenC1ERKNSt7__cxx1112basic_stringIcSt11char_traitsIcESaIcEEE(ptr noundef nonnull align 8 dereferenceable(8) %0, ptr noundef nonnull align 8 dereferenceable(32) %9)
          to label %44 unwind label %78

44:                                               ; preds = %43
  call void @_ZNSt7__cxx1112basic_stringIcSt11char_traitsIcESaIcEED1Ev(ptr noundef nonnull align 8 dereferenceable(32) %9) #1
  ret void

45:                                               ; preds = %21
  %46 = landingpad { ptr, i32 }
          cleanup
  %47 = extractvalue { ptr, i32 } %46, 0
  store ptr %47, ptr %5, align 8
  %48 = extractvalue { ptr, i32 } %46, 1
  store i32 %48, ptr %6, align 4
  br label %58

49:                                               ; preds = %23
  %50 = landingpad { ptr, i32 }
          cleanup
  %51 = extractvalue { ptr, i32 } %50, 0
  store ptr %51, ptr %5, align 8
  %52 = extractvalue { ptr, i32 } %50, 1
  store i32 %52, ptr %6, align 4
  br label %57

53:                                               ; preds = %24
  %54 = landingpad { ptr, i32 }
          cleanup
  %55 = extractvalue { ptr, i32 } %54, 0
  store ptr %55, ptr %5, align 8
  %56 = extractvalue { ptr, i32 } %54, 1
  store i32 %56, ptr %6, align 4
  call void @_ZNSt7__cxx1112basic_stringIcSt11char_traitsIcESaIcEED1Ev(ptr noundef nonnull align 8 dereferenceable(32) %7) #1
  br label %57

57:                                               ; preds = %53, %49
  call void @_ZNSaIcED1Ev(ptr noundef nonnull align 1 dereferenceable(1) %8) #1
  br label %58

58:                                               ; preds = %57, %45
  call void @__cxa_guard_abort(ptr @_ZGVZN32pxrInternal_v0_24__pxrReserved__L14_GetShaderPathEPKcE6plugin) #1
  br label %82

59:                                               ; preds = %27
  %60 = landingpad { ptr, i32 }
          cleanup
  %61 = extractvalue { ptr, i32 } %60, 0
  store ptr %61, ptr %5, align 8
  %62 = extractvalue { ptr, i32 } %60, 1
  store i32 %62, ptr %6, align 4
  br label %77

63:                                               ; preds = %28
  %64 = landingpad { ptr, i32 }
          cleanup
  %65 = extractvalue { ptr, i32 } %64, 0
  store ptr %65, ptr %5, align 8
  %66 = extractvalue { ptr, i32 } %64, 1
  store i32 %66, ptr %6, align 4
  br label %76

67:                                               ; preds = %30
  %68 = landingpad { ptr, i32 }
          cleanup
  %69 = extractvalue { ptr, i32 } %68, 0
  store ptr %69, ptr %5, align 8
  %70 = extractvalue { ptr, i32 } %68, 1
  store i32 %70, ptr %6, align 4
  br label %75

71:                                               ; preds = %31
  %72 = landingpad { ptr, i32 }
          cleanup
  %73 = extractvalue { ptr, i32 } %72, 0
  store ptr %73, ptr %5, align 8
  %74 = extractvalue { ptr, i32 } %72, 1
  store i32 %74, ptr %6, align 4
  call void @_ZNSt7__cxx1112basic_stringIcSt11char_traitsIcESaIcEED1Ev(ptr noundef nonnull align 8 dereferenceable(32) %10) #1
  br label %75

75:                                               ; preds = %71, %67
  call void @_ZNSt7__cxx1112basic_stringIcSt11char_traitsIcESaIcEED1Ev(ptr noundef nonnull align 8 dereferenceable(32) %13) #1
  br label %76

76:                                               ; preds = %75, %63
  call void @_ZNSaIcED1Ev(ptr noundef nonnull align 1 dereferenceable(1) %14) #1
  call void @_ZNSt7__cxx1112basic_stringIcSt11char_traitsIcESaIcEED1Ev(ptr noundef nonnull align 8 dereferenceable(32) %11) #1
  br label %77

77:                                               ; preds = %76, %59
  call void @_ZNSaIcED1Ev(ptr noundef nonnull align 1 dereferenceable(1) %12) #1
  br label %82

78:                                               ; preds = %43, %40, %37, %36
  %79 = landingpad { ptr, i32 }
          cleanup
  %80 = extractvalue { ptr, i32 } %79, 0
  store ptr %80, ptr %5, align 8
  %81 = extractvalue { ptr, i32 } %79, 1
  store i32 %81, ptr %6, align 4
  call void @_ZNSt7__cxx1112basic_stringIcSt11char_traitsIcESaIcEED1Ev(ptr noundef nonnull align 8 dereferenceable(32) %9) #1
  br label %82

82:                                               ; preds = %78, %77, %58
  %83 = load ptr, ptr %5, align 8
  %84 = load i32, ptr %6, align 4
  %85 = insertvalue { ptr, i32 } poison, ptr %83, 0
  %86 = insertvalue { ptr, i32 } %85, i32 %84, 1
  resume { ptr, i32 } %86
}