; Function Attrs: mustprogress uwtable
define internal fastcc void @_ZN32pxrInternal_v0_24__pxrReserved__L14_GetShaderPathEPKc() unnamed_addr #0 personality ptr @__gxx_personality_v0 {
  %1 = alloca %"class.std::__cxx11::basic_string", align 8
  %2 = alloca %"class.std::allocator.2", align 1
  %3 = alloca %"class.std::__cxx11::basic_string", align 8
  %4 = alloca %"class.std::__cxx11::basic_string", align 8
  %5 = alloca %"class.std::__cxx11::basic_string", align 8
  %6 = alloca %"class.std::allocator.2", align 1
  %7 = alloca %"class.std::__cxx11::basic_string", align 8
  %8 = alloca %"class.std::allocator.2", align 1
  %9 = alloca %"class.pxrInternal_v0_24__pxrReserved__::TfCallContext", align 8
  %10 = load atomic i8, ptr @_ZGVZN32pxrInternal_v0_24__pxrReserved__L14_GetShaderPathEPKcE6plugin acquire, align 8
  %11 = icmp eq i8 %10, 0
  br i1 %11, label %12, label %20, !prof !4

12:                                               ; preds = %0
  %13 = tail call i32 @__cxa_guard_acquire(ptr nonnull @_ZGVZN32pxrInternal_v0_24__pxrReserved__L14_GetShaderPathEPKcE6plugin) #9
  %.not = icmp eq i32 %13, 0
  br i1 %.not, label %20, label %14

14:                                               ; preds = %12
  %15 = invoke noundef nonnull align 8 dereferenceable(104) ptr @_ZN32pxrInternal_v0_24__pxrReserved__12PlugRegistry11GetInstanceEv()
          to label %16 unwind label %40

16:                                               ; preds = %14
  call void @_ZNSaIcEC1Ev(ptr noundef nonnull align 1 dereferenceable(1) %2) #9
  invoke void @_ZNSt7__cxx1112basic_stringIcSt11char_traitsIcESaIcEEC2IS3_EEPKcRKS3_(ptr noundef nonnull align 8 dereferenceable(32) %1, ptr noundef nonnull @.str.1, ptr noundef nonnull align 1 dereferenceable(1) %2)
          to label %17 unwind label %42

17:                                               ; preds = %16
  invoke void @_ZNK32pxrInternal_v0_24__pxrReserved__12PlugRegistry17GetPluginWithNameERKNSt7__cxx1112basic_stringIcSt11char_traitsIcESaIcEEE(ptr dead_on_unwind nonnull writable sret(%"class.pxrInternal_v0_24__pxrReserved__::TfWeakPtr") align 8 @_ZZN32pxrInternal_v0_24__pxrReserved__L14_GetShaderPathEPKcE6plugin, ptr noundef nonnull align 8 dereferenceable(104) %15, ptr noundef nonnull align 8 dereferenceable(32) %1)
          to label %18 unwind label %44

18:                                               ; preds = %17
  call void @_ZNSt7__cxx1112basic_stringIcSt11char_traitsIcESaIcEED1Ev(ptr noundef nonnull align 8 dereferenceable(32) %1) #9
  call void @_ZNSaIcED1Ev(ptr noundef nonnull align 1 dereferenceable(1) %2) #9
  %19 = call i32 @__cxa_atexit(ptr nonnull @_ZN32pxrInternal_v0_24__pxrReserved__9TfWeakPtrINS_10PlugPluginEED2Ev, ptr nonnull @_ZZN32pxrInternal_v0_24__pxrReserved__L14_GetShaderPathEPKcE6plugin, ptr nonnull @__dso_handle) #9
  call void @__cxa_guard_release(ptr nonnull @_ZGVZN32pxrInternal_v0_24__pxrReserved__L14_GetShaderPathEPKcE6plugin) #9
  br label %20

20:                                               ; preds = %18, %12, %0
  call void @_ZNSaIcEC1Ev(ptr noundef nonnull align 1 dereferenceable(1) %6) #9
  %21 = invoke noundef ptr @_ZNSt7__cxx1112basic_stringIcSt11char_traitsIcESaIcEE13_M_local_dataEv(ptr noundef nonnull align 8 dereferenceable(32) %5)
          to label %.noexc unwind label %48

.noexc:                                           ; preds = %20
  invoke void @_ZNSt7__cxx1112basic_stringIcSt11char_traitsIcESaIcEE12_Alloc_hiderC1EPcRKS3_(ptr noundef nonnull align 8 dereferenceable(32) %5, ptr noundef %21, ptr noundef nonnull align 1 dereferenceable(1) %6)
          to label %.noexc17 unwind label %48

.noexc17:                                         ; preds = %.noexc
  invoke void @_ZNSt7__cxx1112basic_stringIcSt11char_traitsIcESaIcEE12_M_constructIPKcEEvT_S8_St20forward_iterator_tag(ptr noundef nonnull align 8 dereferenceable(32) %5, ptr noundef nonnull @.str.2, ptr noundef nonnull getelementptr inbounds nuw (i8, ptr @.str.2, i64 7))
          to label %_ZNSt7__cxx1112basic_stringIcSt11char_traitsIcESaIcEEC2IS3_EEPKcRKS3_.exit unwind label %22

22:                                               ; preds = %.noexc17
  %23 = landingpad { ptr, i32 }
          cleanup
  call void @_ZNSaIcED2Ev(ptr noundef nonnull align 8 dereferenceable(32) %5) #9
  br label %.body

_ZNSt7__cxx1112basic_stringIcSt11char_traitsIcESaIcEEC2IS3_EEPKcRKS3_.exit: ; preds = %.noexc17
  call void @_ZNSaIcEC1Ev(ptr noundef nonnull align 1 dereferenceable(1) %8) #9
  %24 = invoke noundef ptr @_ZNSt7__cxx1112basic_stringIcSt11char_traitsIcESaIcEE13_M_local_dataEv(ptr noundef nonnull align 8 dereferenceable(32) %7)
          to label %.noexc18 unwind label %50

.noexc18:                                         ; preds = %_ZNSt7__cxx1112basic_stringIcSt11char_traitsIcESaIcEEC2IS3_EEPKcRKS3_.exit
  invoke void @_ZNSt7__cxx1112basic_stringIcSt11char_traitsIcESaIcEE12_Alloc_hiderC1EPcRKS3_(ptr noundef nonnull align 8 dereferenceable(32) %7, ptr noundef %24, ptr noundef nonnull align 1 dereferenceable(1) %8)
          to label %.noexc19 unwind label %50

.noexc19:                                         ; preds = %.noexc18
  invoke void @_ZNSt7__cxx1112basic_stringIcSt11char_traitsIcESaIcEE12_M_constructIPKcEEvT_S8_St20forward_iterator_tag(ptr noundef nonnull align 8 dereferenceable(32) %7, ptr noundef nonnull @.str, ptr noundef nonnull getelementptr inbounds nuw (i8, ptr @.str, i64 15))
          to label %_ZNSt7__cxx1112basic_stringIcSt11char_traitsIcESaIcEEC2IS3_EEPKcRKS3_.exit22 unwind label %25

25:                                               ; preds = %.noexc19
  %26 = landingpad { ptr, i32 }
          cleanup
  call void @_ZNSaIcED2Ev(ptr noundef nonnull align 8 dereferenceable(32) %7) #9
  br label %.body20

_ZNSt7__cxx1112basic_stringIcSt11char_traitsIcESaIcEEC2IS3_EEPKcRKS3_.exit22: ; preds = %.noexc19
  invoke void @_ZN32pxrInternal_v0_24__pxrReserved__16TfStringCatPathsERKNSt7__cxx1112basic_stringIcSt11char_traitsIcESaIcEEES7_(ptr dead_on_unwind nonnull writable sret(%"class.std::__cxx11::basic_string") align 8 %4, ptr noundef nonnull align 8 dereferenceable(32) %5, ptr noundef nonnull align 8 dereferenceable(32) %7)
          to label %27 unwind label %52

27:                                               ; preds = %_ZNSt7__cxx1112basic_stringIcSt11char_traitsIcESaIcEEC2IS3_EEPKcRKS3_.exit22
  invoke void @_ZN32pxrInternal_v0_24__pxrReserved__22PlugFindPluginResourceERKNS_9TfWeakPtrINS_10PlugPluginEEERKNSt7__cxx1112basic_stringIcSt11char_traitsIcESaIcEEEb(ptr dead_on_unwind nonnull writable sret(%"class.std::__cxx11::basic_string") align 8 %3, ptr noundef nonnull align 8 dereferenceable(16) @_ZZN32pxrInternal_v0_24__pxrReserved__L14_GetShaderPathEPKcE6plugin, ptr noundef nonnull align 8 dereferenceable(32) %4, i1 noundef zeroext true)
          to label %28 unwind label %54

28:                                               ; preds = %27
  call void @_ZNSt7__cxx1112basic_stringIcSt11char_traitsIcESaIcEED1Ev(ptr noundef nonnull align 8 dereferenceable(32) %4) #9
  call void @_ZNSt7__cxx1112basic_stringIcSt11char_traitsIcESaIcEED1Ev(ptr noundef nonnull align 8 dereferenceable(32) %7) #9
  call void @_ZNSaIcED1Ev(ptr noundef nonnull align 1 dereferenceable(1) %8) #9
  call void @_ZNSt7__cxx1112basic_stringIcSt11char_traitsIcESaIcEED1Ev(ptr noundef nonnull align 8 dereferenceable(32) %5) #9
  call void @_ZNSaIcED1Ev(ptr noundef nonnull align 1 dereferenceable(1) %6) #9
  %29 = call noundef zeroext i1 @_ZNKSt7__cxx1112basic_stringIcSt11char_traitsIcESaIcEE5emptyEv(ptr noundef nonnull align 8 dereferenceable(32) %3) #9
  br i1 %29, label %30, label %38

30:                                               ; preds = %28
  store ptr @.str.3, ptr %9, align 8
  %31 = getelementptr inbounds nuw i8, ptr %9, i64 8
  store ptr @__func__._ZN32pxrInternal_v0_24__pxrReserved__L14_GetShaderPathEPKc, ptr %31, align 8
  %32 = getelementptr inbounds nuw i8, ptr %9, i64 16
  store i64 23, ptr %32, align 8
  %33 = getelementptr inbounds nuw i8, ptr %9, i64 24
  store ptr @__PRETTY_FUNCTION__._ZN32pxrInternal_v0_24__pxrReserved__L14_GetShaderPathEPKc, ptr %33, align 8
  %34 = getelementptr inbounds nuw i8, ptr %9, i64 32
  store i8 0, ptr %34, align 8
  %35 = invoke noundef ptr (ptr, ...) @_ZN32pxrInternal_v0_24__pxrReserved__21Tf_VerifyStringFormatEPKcz(ptr noundef nonnull @.str.5, ptr noundef nonnull @.str)
          to label %36 unwind label %57

36:                                               ; preds = %30
  %37 = invoke noundef zeroext i1 @_ZN32pxrInternal_v0_24__pxrReserved__21Tf_FailedVerifyHelperERKNS_13TfCallContextEPKcS4_(ptr noundef nonnull align 8 dereferenceable(33) %9, ptr noundef nonnull @.str.4, ptr noundef %35)
          to label %38 unwind label %57

38:                                               ; preds = %36, %28
  invoke void @_ZN32pxrInternal_v0_24__pxrReserved__7TfTokenC1ERKNSt7__cxx1112basic_stringIcSt11char_traitsIcESaIcEEE(ptr noundef nonnull align 8 dereferenceable(8) @_ZZN32pxrInternal_v0_24__pxrReserved__35UsdSkelImagingPackageSkinningShaderEvE14skinningShader, ptr noundef nonnull align 8 dereferenceable(32) %3)
          to label %39 unwind label %57

39:                                               ; preds = %38
  call void @_ZNSt7__cxx1112basic_stringIcSt11char_traitsIcESaIcEED1Ev(ptr noundef nonnull align 8 dereferenceable(32) %3) #9
  ret void

40:                                               ; preds = %14
  %41 = landingpad { ptr, i32 }
          cleanup
  br label %47

42:                                               ; preds = %16
  %43 = landingpad { ptr, i32 }
          cleanup
  br label %46

44:                                               ; preds = %17
  %45 = landingpad { ptr, i32 }
          cleanup
  call void @_ZNSt7__cxx1112basic_stringIcSt11char_traitsIcESaIcEED1Ev(ptr noundef nonnull align 8 dereferenceable(32) %1) #9
  br label %46

46:                                               ; preds = %44, %42
  %.pn = phi { ptr, i32 } [ %45, %44 ], [ %43, %42 ]
  call void @_ZNSaIcED1Ev(ptr noundef nonnull align 1 dereferenceable(1) %2) #9
  br label %47

47:                                               ; preds = %46, %40
  %.pn.pn = phi { ptr, i32 } [ %.pn, %46 ], [ %41, %40 ]
  call void @__cxa_guard_abort(ptr nonnull @_ZGVZN32pxrInternal_v0_24__pxrReserved__L14_GetShaderPathEPKcE6plugin) #9
  br label %59

48:                                               ; preds = %.noexc, %20
  %49 = landingpad { ptr, i32 }
          cleanup
  br label %.body

50:                                               ; preds = %.noexc18, %_ZNSt7__cxx1112basic_stringIcSt11char_traitsIcESaIcEEC2IS3_EEPKcRKS3_.exit
  %51 = landingpad { ptr, i32 }
          cleanup
  br label %.body20

52:                                               ; preds = %_ZNSt7__cxx1112basic_stringIcSt11char_traitsIcESaIcEEC2IS3_EEPKcRKS3_.exit22
  %53 = landingpad { ptr, i32 }
          cleanup
  br label %56

54:                                               ; preds = %27
  %55 = landingpad { ptr, i32 }
          cleanup
  call void @_ZNSt7__cxx1112basic_stringIcSt11char_traitsIcESaIcEED1Ev(ptr noundef nonnull align 8 dereferenceable(32) %4) #9
  br label %56

56:                                               ; preds = %54, %52
  %.pn11 = phi { ptr, i32 } [ %55, %54 ], [ %53, %52 ]
  call void @_ZNSt7__cxx1112basic_stringIcSt11char_traitsIcESaIcEED1Ev(ptr noundef nonnull align 8 dereferenceable(32) %7) #9
  br label %.body20

.body20:                                          ; preds = %50, %25, %56
  %.pn11.pn = phi { ptr, i32 } [ %.pn11, %56 ], [ %51, %50 ], [ %26, %25 ]
  call void @_ZNSaIcED1Ev(ptr noundef nonnull align 1 dereferenceable(1) %8) #9
  call void @_ZNSt7__cxx1112basic_stringIcSt11char_traitsIcESaIcEED1Ev(ptr noundef nonnull align 8 dereferenceable(32) %5) #9
  br label %.body

.body:                                            ; preds = %48, %22, %.body20
  %.pn11.pn.pn = phi { ptr, i32 } [ %.pn11.pn, %.body20 ], [ %49, %48 ], [ %23, %22 ]
  call void @_ZNSaIcED1Ev(ptr noundef nonnull align 1 dereferenceable(1) %6) #9
  br label %59

57:                                               ; preds = %38, %36, %30
  %58 = landingpad { ptr, i32 }
          cleanup
  call void @_ZNSt7__cxx1112basic_stringIcSt11char_traitsIcESaIcEED1Ev(ptr noundef nonnull align 8 dereferenceable(32) %3) #9
  br label %59

59:                                               ; preds = %57, %.body, %47
  %.pn15 = phi { ptr, i32 } [ %58, %57 ], [ %.pn11.pn.pn, %.body ], [ %.pn.pn, %47 ]
  resume { ptr, i32 } %.pn15
}